target datalayout = "e-m:e-p270:32:32-p271:32:32-p272:64:64-i64:64-i128:128-f80:128-n8:16:32:64-S128"
target triple = "x86_64-pc-linux-gnu"

%struct.BufferManagerRelation = type { ptr, ptr, i8 }
%struct.PageHeaderData = type { %struct.PageXLogRecPtr, i16, i16, i16, i16, i16, i16, i32, [0 x %struct.ItemIdData] }
%struct.PageXLogRecPtr = type { i32, i32 }
%struct.ItemIdData = type { i32 }
%struct.SpGistPageOpaqueData = type { i16, i16, i16, i16 }

@LocalBufferBlockPointers = external global ptr, align 8
@BufferBlocks = external global ptr, align 8

; Function Attrs: inlinehint nounwind uwtable
define internal ptr @BufferGetBlock(i32 noundef %0) #2 {
  %2 = alloca ptr, align 8
  %3 = alloca i32, align 4
  store i32 %0, ptr %3, align 4
  %4 = load i32, ptr %3, align 4
  %5 = icmp slt i32 %4, 0
  br i1 %5, label %6, label %14

6:                                                ; preds = %1
  %7 = load ptr, ptr @LocalBufferBlockPointers, align 8
  %8 = load i32, ptr %3, align 4
  %9 = sub i32 0, %8
  %10 = sub i32 %9, 1
  %11 = sext i32 %10 to i64
  %12 = getelementptr inbounds ptr, ptr %7, i64 %11
  %13 = load ptr, ptr %12, align 8
  store ptr %13, ptr %2, align 8
  br label %21

14:                                               ; preds = %1
  %15 = load ptr, ptr @BufferBlocks, align 8
  %16 = load i32, ptr %3, align 4
  %17 = sub i32 %16, 1
  %18 = sext i32 %17 to i64
  %19 = mul i64 %18, 8192
  %20 = getelementptr inbounds nuw i8, ptr %15, i64 %19
  store ptr %20, ptr %2, align 8
  br label %21

21:                                               ; preds = %14, %6
  %22 = load ptr, ptr %2, align 8
  ret ptr %22
}

; Function Attrs: inlinehint nounwind uwtable
define internal zeroext i1 @PageIsEmpty(ptr noundef %0) #2 {
  %2 = alloca ptr, align 8
  store ptr %0, ptr %2, align 8
  %3 = load ptr, ptr %2, align 8
  %4 = getelementptr inbounds nuw %struct.PageHeaderData, ptr %3, i32 0, i32 3
  %5 = load i16, ptr %4, align 4
  %6 = zext i16 %5 to i64
  %7 = icmp ule i64 %6, 24
  ret i1 %7
}

; Function Attrs: inlinehint nounwind uwtable
define internal void @PageValidateSpecialPointer(ptr noundef %0) #2 {
  %2 = alloca ptr, align 8
  store ptr %0, ptr %2, align 8
  ret void
}

; Function Attrs: inlinehint nounwind uwtable
define internal zeroext i1 @PageIsNew(ptr noundef %0) #2 {
  %2 = alloca ptr, align 8
  store ptr %0, ptr %2, align 8
  %3 = load ptr, ptr %2, align 8
  %4 = getelementptr inbounds nuw %struct.PageHeaderData, ptr %3, i32 0, i32 4
  %5 = load i16, ptr %4, align 2
  %6 = zext i16 %5 to i32
  %7 = icmp eq i32 %6, 0
  ret i1 %7
}

; Function Attrs: inlinehint nounwind uwtable
define internal ptr @BufferGetPage(i32 noundef %0) #2 {
  %2 = alloca i32, align 4
  store i32 %0, ptr %2, align 4
  %3 = load i32, ptr %2, align 4
  %4 = call ptr @BufferGetBlock(i32 noundef %3)
  ret ptr %4
}

; Function Attrs: nounwind uwtable
define dso_local i32 @SpGistNewBuffer(ptr noundef %0) #0 {
  %2 = alloca i32, align 4
  %3 = alloca ptr, align 8
  %4 = alloca i32, align 4
  %5 = alloca i32, align 4
  %6 = alloca i32, align 4
  %7 = alloca ptr, align 8
  %8 = alloca %struct.BufferManagerRelation, align 8
  store ptr %0, ptr %3, align 8
  call void @llvm.lifetime.start.p0(i64 4, ptr %4) #7
  br label %9

9:                                                ; preds = %60, %58, %1
  call void @llvm.lifetime.start.p0(i64 4, ptr %5) #7
  %10 = load ptr, ptr %3, align 8
  %11 = call i32 @GetFreeIndexPage(ptr noundef %10)
  store i32 %11, ptr %5, align 4
  %12 = load i32, ptr %5, align 4
  %13 = icmp eq i32 %12, -1
  br i1 %13, label %14, label %15

14:                                               ; preds = %9
  store i32 2, ptr %6, align 4
  br label %58

15:                                               ; preds = %9
  %16 = load i32, ptr %5, align 4
  %17 = icmp ule i32 %16, 2
  br i1 %17, label %18, label %19

18:                                               ; preds = %15
  store i32 3, ptr %6, align 4
  br label %58

19:                                               ; preds = %15
  %20 = load ptr, ptr %3, align 8
  %21 = load i32, ptr %5, align 4
  %22 = call i32 @ReadBuffer(ptr noundef %20, i32 noundef %21)
  store i32 %22, ptr %4, align 4
  %23 = load i32, ptr %4, align 4
  %24 = call zeroext i1 @ConditionalLockBuffer(i32 noundef %23)
  br i1 %24, label %25, label %56

25:                                               ; preds = %19
  call void @llvm.lifetime.start.p0(i64 8, ptr %7) #7
  %26 = load i32, ptr %4, align 4
  %27 = call ptr @BufferGetPage(i32 noundef %26)
  store ptr %27, ptr %7, align 8
  %28 = load ptr, ptr %7, align 8
  %29 = call zeroext i1 @PageIsNew(ptr noundef %28)
  br i1 %29, label %30, label %32

30:                                               ; preds = %25
  %31 = load i32, ptr %4, align 4
  store i32 %31, ptr %2, align 4
  store i32 1, ptr %6, align 4
  br label %53

32:                                               ; preds = %25
  %33 = load ptr, ptr %7, align 8
  call void @PageValidateSpecialPointer(ptr noundef %33)
  %34 = load ptr, ptr %7, align 8
  %35 = load ptr, ptr %7, align 8
  %36 = getelementptr inbounds nuw %struct.PageHeaderData, ptr %35, i32 0, i32 5
  %37 = load i16, ptr %36, align 4
  %38 = zext i16 %37 to i32
  %39 = sext i32 %38 to i64
  %40 = getelementptr inbounds i8, ptr %34, i64 %39
  %41 = getelementptr inbounds nuw %struct.SpGistPageOpaqueData, ptr %40, i32 0, i32 0
  %42 = load i16, ptr %41, align 2
  %43 = zext i16 %42 to i32
  %44 = and i32 %43, 2
  %45 = icmp ne i32 %44, 0
  br i1 %45, label %49, label %46

46:                                               ; preds = %32
  %47 = load ptr, ptr %7, align 8
  %48 = call zeroext i1 @PageIsEmpty(ptr noundef %47)
  br i1 %48, label %49, label %51

49:                                               ; preds = %46, %32
  %50 = load i32, ptr %4, align 4
  store i32 %50, ptr %2, align 4
  store i32 1, ptr %6, align 4
  br label %53

51:                                               ; preds = %46
  %52 = load i32, ptr %4, align 4
  call void @LockBuffer(i32 noundef %52, i32 noundef 0)
  store i32 0, ptr %6, align 4
  br label %53

53:                                               ; preds = %51, %49, %30
  call void @llvm.lifetime.end.p0(i64 8, ptr %7) #7
  %54 = load i32, ptr %6, align 4
  switch i32 %54, label %58 [
    i32 0, label %55
  ]

55:                                               ; preds = %53
  br label %56

56:                                               ; preds = %55, %19
  %57 = load i32, ptr %4, align 4
  call void @ReleaseBuffer(i32 noundef %57)
  store i32 0, ptr %6, align 4
  br label %58

58:                                               ; preds = %56, %53, %18, %14
  call void @llvm.lifetime.end.p0(i64 4, ptr %5) #7
  %59 = load i32, ptr %6, align 4
  switch i32 %59, label %69 [
    i32 0, label %60
    i32 2, label %61
    i32 3, label %9
  ]

60:                                               ; preds = %58
  br label %9

61:                                               ; preds = %58
  %62 = getelementptr inbounds nuw %struct.BufferManagerRelation, ptr %8, i32 0, i32 0
  %63 = load ptr, ptr %3, align 8
  store ptr %63, ptr %62, align 8
  %64 = getelementptr inbounds nuw %struct.BufferManagerRelation, ptr %8, i32 0, i32 1
  store ptr null, ptr %64, align 8
  %65 = getelementptr inbounds nuw %struct.BufferManagerRelation, ptr %8, i32 0, i32 2
  store i8 0, ptr %65, align 8
  %66 = getelementptr i8, ptr %8, i64 17
  call void @llvm.memset.p0.i64(ptr align 1 %66, i8 0, i64 7, i1 false)
  %67 = call i32 @ExtendBufferedRel(ptr noundef byval(%struct.BufferManagerRelation) align 8 %8, i32 noundef 0, ptr noundef null, i32 noundef 8)
  store i32 %67, ptr %4, align 4
  %68 = load i32, ptr %4, align 4
  store i32 %68, ptr %2, align 4
  store i32 1, ptr %6, align 4
  br label %69

69:                                               ; preds = %61, %58
  call void @llvm.lifetime.end.p0(i64 4, ptr %4) #7
  %70 = load i32, ptr %2, align 4
  ret i32 %70
}