; Function Attrs: nounwind uwtable
define dso_local i32 @SpGistNewBuffer(ptr noundef %0) local_unnamed_addr #0 {
  %2 = alloca %struct.BufferManagerRelation, align 8
  %3 = tail call i32 @GetFreeIndexPage(ptr noundef %0) #10
  %4 = icmp eq i32 %3, -1
  br i1 %4, label %._crit_edge, label %.lr.ph

.lr.ph:                                           ; preds = %1, %38
  %5 = phi i32 [ %39, %38 ], [ %3, %1 ]
  %6 = icmp ult i32 %5, 3
  br i1 %6, label %38, label %7

7:                                                ; preds = %.lr.ph
  %8 = tail call i32 @ReadBuffer(ptr noundef %0, i32 noundef %5) #10
  %9 = tail call zeroext i1 @ConditionalLockBuffer(i32 noundef %8) #10
  br i1 %9, label %10, label %37

10:                                               ; preds = %7
  %11 = icmp slt i32 %8, 0
  br i1 %11, label %12, label %18

12:                                               ; preds = %10
  %13 = load ptr, ptr @LocalBufferBlockPointers, align 8
  %14 = xor i32 %8, -1
  %15 = zext nneg i32 %14 to i64
  %16 = getelementptr inbounds nuw ptr, ptr %13, i64 %15
  %17 = load ptr, ptr %16, align 8
  br label %BufferGetPage.exit

18:                                               ; preds = %10
  %19 = load ptr, ptr @BufferBlocks, align 8
  %20 = add nsw i32 %8, -1
  %21 = sext i32 %20 to i64
  %22 = shl nsw i64 %21, 13
  %23 = getelementptr inbounds nuw i8, ptr %19, i64 %22
  br label %BufferGetPage.exit

BufferGetPage.exit:                               ; preds = %12, %18
  %.0.i.i = phi ptr [ %17, %12 ], [ %23, %18 ]
  %24 = getelementptr i8, ptr %.0.i.i, i64 14
  %.val = load i16, ptr %24, align 2
  %25 = icmp eq i16 %.val, 0
  br i1 %25, label %.thread29, label %26

26:                                               ; preds = %BufferGetPage.exit
  %27 = getelementptr inbounds nuw i8, ptr %.0.i.i, i64 16
  %28 = load i16, ptr %27, align 4
  %29 = zext i16 %28 to i64
  %30 = getelementptr inbounds nuw i8, ptr %.0.i.i, i64 %29
  %31 = load i16, ptr %30, align 2
  %32 = and i16 %31, 2
  %.not = icmp eq i16 %32, 0
  br i1 %.not, label %33, label %.thread29

33:                                               ; preds = %26
  %34 = getelementptr i8, ptr %.0.i.i, i64 12
  %.val23 = load i16, ptr %34, align 4
  %35 = icmp ult i16 %.val23, 25
  br i1 %35, label %.thread29, label %36

36:                                               ; preds = %33
  tail call void @LockBuffer(i32 noundef %8, i32 noundef 0) #10
  br label %37

37:                                               ; preds = %36, %7
  tail call void @ReleaseBuffer(i32 noundef %8) #10
  br label %38

38:                                               ; preds = %.lr.ph, %37
  %39 = tail call i32 @GetFreeIndexPage(ptr noundef %0) #10
  %40 = icmp eq i32 %39, -1
  br i1 %40, label %._crit_edge, label %.lr.ph

._crit_edge:                                      ; preds = %38, %1
  store ptr %0, ptr %2, align 8
  %41 = getelementptr inbounds nuw i8, ptr %2, i64 8
  call void @llvm.memset.p0.i64(ptr noundef nonnull align 8 dereferenceable(16) %41, i8 0, i64 16, i1 false)
  %42 = tail call i32 @ExtendBufferedRel(ptr noundef nonnull byval(%struct.BufferManagerRelation) align 8 %2, i32 noundef 0, ptr noundef null, i32 noundef 8) #10
  br label %.thread29

.thread29:                                        ; preds = %BufferGetPage.exit, %33, %26, %._crit_edge
  %.4 = phi i32 [ %42, %._crit_edge ], [ %8, %26 ], [ %8, %33 ], [ %8, %BufferGetPage.exit ]
  ret i32 %.4
}